target datalayout = "e-m:e-p270:32:32-p271:32:32-p272:64:64-i64:64-i128:128-f80:128-n8:16:32:64-S128"
target triple = "x86_64-unknown-linux-gnu"

%"class.node::tracing::AgentWriterHandle" = type <{ ptr, i32, [4 x i8] }>
%"class.node::inspector::protocol::TracingAgent" = type { %"class.node::inspector::protocol::NodeTracing::Backend", ptr, %"class.std::shared_ptr", %"class.node::tracing::AgentWriterHandle", i32, %"class.std::shared_ptr.0" }
%"class.node::inspector::protocol::NodeTracing::Backend" = type { ptr }
%"class.std::shared_ptr" = type { %"class.std::__shared_ptr" }
%"class.std::__shared_ptr" = type { ptr, %"class.std::__shared_count" }
%"class.std::__shared_count" = type { ptr }
%"class.std::shared_ptr.0" = type { %"class.std::__shared_ptr.1" }
%"class.std::__shared_ptr.1" = type { ptr, %"class.std::__shared_count" }
%"class.node::inspector::protocol::DispatchResponse" = type <{ i32, [4 x i8], %"class.std::__cxx11::basic_string", i32, [4 x i8] }>
%"class.std::__cxx11::basic_string" = type { %"struct.std::__cxx11::basic_string<char>::_Alloc_hider", i64, %union.anon }
%"struct.std::__cxx11::basic_string<char>::_Alloc_hider" = type { ptr }
%union.anon = type { i64, [8 x i8] }

; Function Attrs: mustprogress nounwind uwtable
define linkonce_odr dso_local noundef ptr @_ZNKSt12__shared_ptrIN4node9inspector8protocol11NodeTracing8FrontendELN9__gnu_cxx12_Lock_policyE2EE3getEv(ptr noundef nonnull align 8 dereferenceable(16) %this) #4 comdat align 2 {
entry:
  %this.addr = alloca ptr, align 8
  store ptr %this, ptr %this.addr, align 8
  %this1 = load ptr, ptr %this.addr, align 8
  %_M_ptr = getelementptr inbounds %"class.std::__shared_ptr.1", ptr %this1, i32 0, i32 0
  %0 = load ptr, ptr %_M_ptr, align 8
  ret ptr %0
}

; Function Attrs: mustprogress nounwind uwtable
define linkonce_odr dso_local noundef ptr @_ZNKSt19__shared_ptr_accessIN4node9inspector8protocol11NodeTracing8FrontendELN9__gnu_cxx12_Lock_policyE2ELb0ELb0EE6_M_getEv(ptr noundef nonnull align 1 dereferenceable(1) %this) #4 comdat align 2 {
entry:
  %this.addr = alloca ptr, align 8
  store ptr %this, ptr %this.addr, align 8
  %this1 = load ptr, ptr %this.addr, align 8
  %call = call noundef ptr @_ZNKSt12__shared_ptrIN4node9inspector8protocol11NodeTracing8FrontendELN9__gnu_cxx12_Lock_policyE2EE3getEv(ptr noundef nonnull align 8 dereferenceable(16) %this1) #3
  ret ptr %call
}

; Function Attrs: mustprogress nounwind uwtable
define linkonce_odr dso_local noundef ptr @_ZNKSt19__shared_ptr_accessIN4node9inspector8protocol11NodeTracing8FrontendELN9__gnu_cxx12_Lock_policyE2ELb0ELb0EEptEv(ptr noundef nonnull align 1 dereferenceable(1) %this) #4 comdat align 2 {
entry:
  %this.addr = alloca ptr, align 8
  store ptr %this, ptr %this.addr, align 8
  %this1 = load ptr, ptr %this.addr, align 8
  %call = call noundef ptr @_ZNKSt19__shared_ptr_accessIN4node9inspector8protocol11NodeTracing8FrontendELN9__gnu_cxx12_Lock_policyE2ELb0ELb0EE6_M_getEv(ptr noundef nonnull align 1 dereferenceable(1) %this1) #3
  ret ptr %call
}

; Function Attrs: mustprogress nounwind uwtable
define linkonce_odr dso_local void @_ZN4node7tracing17AgentWriterHandle5resetEv(ptr noundef nonnull align 8 dereferenceable(12) %this) #4 comdat align 2 {
entry:
  %this.addr = alloca ptr, align 8
  store ptr %this, ptr %this.addr, align 8
  %this1 = load ptr, ptr %this.addr, align 8
  %agent_ = getelementptr inbounds %"class.node::tracing::AgentWriterHandle", ptr %this1, i32 0, i32 0
  %0 = load ptr, ptr %agent_, align 8
  %cmp = icmp ne ptr %0, null
  br i1 %cmp, label %if.then, label %if.end

if.then:                                          ; preds = %entry
  %agent_2 = getelementptr inbounds %"class.node::tracing::AgentWriterHandle", ptr %this1, i32 0, i32 0
  %1 = load ptr, ptr %agent_2, align 8
  %id_ = getelementptr inbounds %"class.node::tracing::AgentWriterHandle", ptr %this1, i32 0, i32 1
  %2 = load i32, ptr %id_, align 8
  call void @_ZN4node7tracing5Agent10DisconnectEi(ptr noundef nonnull align 8 dereferenceable(1312) %1, i32 noundef %2)
  br label %if.end

if.end:                                           ; preds = %if.then, %entry
  %agent_3 = getelementptr inbounds %"class.node::tracing::AgentWriterHandle", ptr %this1, i32 0, i32 0
  store ptr null, ptr %agent_3, align 8
  ret void
}

; Function Attrs: mustprogress nounwind uwtable
define dso_local void @_ZN4node9inspector8protocol12TracingAgent4stopEv(ptr noalias sret(%"class.node::inspector::protocol::DispatchResponse") align 8 %agg.result, ptr noundef nonnull align 8 dereferenceable(72) %this) unnamed_addr #4 align 2 {
entry:
  %result.ptr = alloca ptr, align 8
  %this.addr = alloca ptr, align 8
  store ptr %agg.result, ptr %result.ptr, align 8
  store ptr %this, ptr %this.addr, align 8
  %this1 = load ptr, ptr %this.addr, align 8
  %trace_writer_ = getelementptr inbounds %"class.node::inspector::protocol::TracingAgent", ptr %this1, i32 0, i32 3
  call void @_ZN4node7tracing17AgentWriterHandle5resetEv(ptr noundef nonnull align 8 dereferenceable(12) %trace_writer_)
  %frontend_ = getelementptr inbounds %"class.node::inspector::protocol::TracingAgent", ptr %this1, i32 0, i32 5
  %call = call noundef ptr @_ZNKSt19__shared_ptr_accessIN4node9inspector8protocol11NodeTracing8FrontendELN9__gnu_cxx12_Lock_policyE2ELb0ELb0EEptEv(ptr noundef nonnull align 1 dereferenceable(1) %frontend_) #3
  call void @_ZN4node9inspector8protocol11NodeTracing8Frontend15tracingCompleteEv(ptr noundef nonnull align 8 dereferenceable(8) %call)
  call void @_ZN4node9inspector8protocol16DispatchResponse2OKEv(ptr sret(%"class.node::inspector::protocol::DispatchResponse") align 8 %agg.result)
  ret void
}