; Function Attrs: mustprogress nounwind uwtable
define dso_local void @_ZN4node9inspector8protocol12TracingAgent4stopEv(ptr noalias sret(%"class.node::inspector::protocol::DispatchResponse") align 8 %agg.result, ptr nocapture noundef nonnull align 8 dereferenceable(72) %this) unnamed_addr #4 align 2 {
entry:
  %trace_writer_ = getelementptr inbounds i8, ptr %this, i64 32
  %0 = load ptr, ptr %trace_writer_, align 8
  %cmp.not.i = icmp eq ptr %0, null
  br i1 %cmp.not.i, label %_ZN4node7tracing17AgentWriterHandle5resetEv.exit, label %if.then.i

if.then.i:                                        ; preds = %entry
  %id_.i = getelementptr inbounds i8, ptr %this, i64 40
  %1 = load i32, ptr %id_.i, align 8
  tail call void @_ZN4node7tracing5Agent10DisconnectEi(ptr noundef nonnull align 8 dereferenceable(1312) %0, i32 noundef %1) #13
  br label %_ZN4node7tracing17AgentWriterHandle5resetEv.exit

_ZN4node7tracing17AgentWriterHandle5resetEv.exit: ; preds = %entry, %if.then.i
  store ptr null, ptr %trace_writer_, align 8
  %frontend_ = getelementptr inbounds i8, ptr %this, i64 56
  %2 = load ptr, ptr %frontend_, align 8
  tail call void @_ZN4node9inspector8protocol11NodeTracing8Frontend15tracingCompleteEv(ptr noundef nonnull align 8 dereferenceable(8) %2) #13
  tail call void @_ZN4node9inspector8protocol16DispatchResponse2OKEv(ptr sret(%"class.node::inspector::protocol::DispatchResponse") align 8 %agg.result) #13
  ret void
}